target datalayout = "e-m:e-p270:32:32-p271:32:32-p272:64:64-i64:64-i128:128-f80:128-n8:16:32:64-S128"
target triple = "x86_64-pc-linux-gnu"

%struct._exr_decode_pipeline = type { i64, ptr, i16, i16, i32, ptr, %struct.exr_chunk_info_t, i32, i32, i64, ptr, ptr, i64, ptr, i64, ptr, i64, ptr, i64, ptr, i64, ptr, i64, ptr, ptr, ptr, ptr, ptr, ptr, [5 x %struct.exr_coding_channel_info_t] }
%struct.exr_chunk_info_t = type { i32, i32, i32, i32, i32, i8, i8, i8, i8, i64, i64, i64, i64, i64 }
%struct.exr_coding_channel_info_t = type { ptr, i32, i32, i32, i32, i8, i8, i16, i16, i16, i32, i32, %union.anon }
%union.anon = type { ptr }
%union.anon.2 = type { i64 }
%struct.anon = type { i16, i16, i16, i16 }

; Function Attrs: inlinehint nounwind uwtable
define internal zeroext i16 @__uint16_identity(i16 noundef zeroext %0) #2 {
  %2 = alloca i16, align 2
  store i16 %0, ptr %2, align 2, !tbaa !44
  %3 = load i16, ptr %2, align 2, !tbaa !44
  ret i16 %3
}

; Function Attrs: inlinehint nounwind uwtable
define internal zeroext i16 @one_to_native16(i16 noundef zeroext %0) #2 {
  %2 = alloca i16, align 2
  store i16 %0, ptr %2, align 2, !tbaa !44
  %3 = load i16, ptr %2, align 2, !tbaa !44
  %4 = call zeroext i16 @__uint16_identity(i16 noundef zeroext %3)
  ret i16 %4
}

; Function Attrs: nounwind uwtable
define internal i32 @unpack_16bit_4chan_interleave(ptr noundef %0) #0 {
  %2 = alloca ptr, align 8
  %3 = alloca ptr, align 8
  %4 = alloca ptr, align 8
  %5 = alloca ptr, align 8
  %6 = alloca ptr, align 8
  %7 = alloca ptr, align 8
  %8 = alloca ptr, align 8
  %9 = alloca i32, align 4
  %10 = alloca i32, align 4
  %11 = alloca i32, align 4
  %12 = alloca %union.anon.2, align 8
  %13 = alloca i32, align 4
  %14 = alloca i32, align 4
  %15 = alloca ptr, align 8
  %16 = alloca i32, align 4
  store ptr %0, ptr %2, align 8, !tbaa !3
  call void @llvm.lifetime.start.p0(i64 8, ptr %3) #6
  %17 = load ptr, ptr %2, align 8, !tbaa !3
  %18 = getelementptr inbounds nuw %struct._exr_decode_pipeline, ptr %17, i32 0, i32 13
  %19 = load ptr, ptr %18, align 8, !tbaa !19
  store ptr %19, ptr %3, align 8, !tbaa !20
  call void @llvm.lifetime.start.p0(i64 8, ptr %4) #6
  call void @llvm.lifetime.start.p0(i64 8, ptr %5) #6
  call void @llvm.lifetime.start.p0(i64 8, ptr %6) #6
  call void @llvm.lifetime.start.p0(i64 8, ptr %7) #6
  call void @llvm.lifetime.start.p0(i64 8, ptr %8) #6
  call void @llvm.lifetime.start.p0(i64 4, ptr %9) #6
  call void @llvm.lifetime.start.p0(i64 4, ptr %10) #6
  call void @llvm.lifetime.start.p0(i64 4, ptr %11) #6
  call void @llvm.lifetime.start.p0(i64 8, ptr %12) #6
  %20 = load ptr, ptr %2, align 8, !tbaa !3
  %21 = getelementptr inbounds nuw %struct._exr_decode_pipeline, ptr %20, i32 0, i32 1
  %22 = load ptr, ptr %21, align 8, !tbaa !28
  %23 = getelementptr inbounds %struct.exr_coding_channel_info_t, ptr %22, i64 0
  %24 = getelementptr inbounds nuw %struct.exr_coding_channel_info_t, ptr %23, i32 0, i32 2
  %25 = load i32, ptr %24, align 4, !tbaa !72
  store i32 %25, ptr %9, align 4, !tbaa !8
  %26 = load ptr, ptr %2, align 8, !tbaa !3
  %27 = getelementptr inbounds nuw %struct._exr_decode_pipeline, ptr %26, i32 0, i32 6
  %28 = getelementptr inbounds nuw %struct.exr_chunk_info_t, ptr %27, i32 0, i32 3
  %29 = load i32, ptr %28, align 4, !tbaa !25
  %30 = load ptr, ptr %2, align 8, !tbaa !3
  %31 = getelementptr inbounds nuw %struct._exr_decode_pipeline, ptr %30, i32 0, i32 8
  %32 = load i32, ptr %31, align 4, !tbaa !26
  %33 = sub nsw i32 %29, %32
  store i32 %33, ptr %10, align 4, !tbaa !8
  %34 = load ptr, ptr %2, align 8, !tbaa !3
  %35 = getelementptr inbounds nuw %struct._exr_decode_pipeline, ptr %34, i32 0, i32 1
  %36 = load ptr, ptr %35, align 8, !tbaa !28
  %37 = getelementptr inbounds %struct.exr_coding_channel_info_t, ptr %36, i64 0
  %38 = getelementptr inbounds nuw %struct.exr_coding_channel_info_t, ptr %37, i32 0, i32 11
  %39 = load i32, ptr %38, align 4, !tbaa !37
  store i32 %39, ptr %11, align 4, !tbaa !8
  %40 = load ptr, ptr %2, align 8, !tbaa !3
  %41 = getelementptr inbounds nuw %struct._exr_decode_pipeline, ptr %40, i32 0, i32 1
  %42 = load ptr, ptr %41, align 8, !tbaa !28
  %43 = getelementptr inbounds %struct.exr_coding_channel_info_t, ptr %42, i64 0
  %44 = getelementptr inbounds nuw %struct.exr_coding_channel_info_t, ptr %43, i32 0, i32 12
  %45 = load ptr, ptr %44, align 8, !tbaa !10
  store ptr %45, ptr %8, align 8, !tbaa !20
  %46 = load ptr, ptr %2, align 8, !tbaa !3
  %47 = getelementptr inbounds nuw %struct._exr_decode_pipeline, ptr %46, i32 0, i32 7
  %48 = load i32, ptr %47, align 8, !tbaa !27
  %49 = load i32, ptr %9, align 4, !tbaa !8
  %50 = mul nsw i32 %48, %49
  %51 = mul nsw i32 %50, 8
  %52 = load ptr, ptr %3, align 8, !tbaa !20
  %53 = sext i32 %51 to i64
  %54 = getelementptr inbounds i8, ptr %52, i64 %53
  store ptr %54, ptr %3, align 8, !tbaa !20
  call void @llvm.lifetime.start.p0(i64 4, ptr %13) #6
  %55 = load ptr, ptr %2, align 8, !tbaa !3
  %56 = getelementptr inbounds nuw %struct._exr_decode_pipeline, ptr %55, i32 0, i32 7
  %57 = load i32, ptr %56, align 8, !tbaa !27
  store i32 %57, ptr %13, align 4, !tbaa !8
  br label %58

58:                                               ; preds = %130, %1
  %59 = load i32, ptr %13, align 4, !tbaa !8
  %60 = load i32, ptr %10, align 4, !tbaa !8
  %61 = icmp slt i32 %59, %60
  br i1 %61, label %63, label %62

62:                                               ; preds = %58
  store i32 2, ptr %14, align 4
  call void @llvm.lifetime.end.p0(i64 4, ptr %13) #6
  br label %133

63:                                               ; preds = %58
  call void @llvm.lifetime.start.p0(i64 8, ptr %15) #6
  %64 = load ptr, ptr %8, align 8, !tbaa !20
  store ptr %64, ptr %15, align 8, !tbaa !98
  %65 = load ptr, ptr %3, align 8, !tbaa !20
  store ptr %65, ptr %4, align 8, !tbaa !42
  %66 = load ptr, ptr %4, align 8, !tbaa !42
  %67 = load i32, ptr %9, align 4, !tbaa !8
  %68 = sext i32 %67 to i64
  %69 = getelementptr inbounds i16, ptr %66, i64 %68
  store ptr %69, ptr %5, align 8, !tbaa !42
  %70 = load ptr, ptr %5, align 8, !tbaa !42
  %71 = load i32, ptr %9, align 4, !tbaa !8
  %72 = sext i32 %71 to i64
  %73 = getelementptr inbounds i16, ptr %70, i64 %72
  store ptr %73, ptr %6, align 8, !tbaa !42
  %74 = load ptr, ptr %6, align 8, !tbaa !42
  %75 = load i32, ptr %9, align 4, !tbaa !8
  %76 = sext i32 %75 to i64
  %77 = getelementptr inbounds i16, ptr %74, i64 %76
  store ptr %77, ptr %7, align 8, !tbaa !42
  %78 = load i32, ptr %9, align 4, !tbaa !8
  %79 = mul nsw i32 %78, 8
  %80 = load ptr, ptr %3, align 8, !tbaa !20
  %81 = sext i32 %79 to i64
  %82 = getelementptr inbounds i8, ptr %80, i64 %81
  store ptr %82, ptr %3, align 8, !tbaa !20
  call void @llvm.lifetime.start.p0(i64 4, ptr %16) #6
  store i32 0, ptr %16, align 4, !tbaa !8
  br label %83

83:                                               ; preds = %122, %63
  %84 = load i32, ptr %16, align 4, !tbaa !8
  %85 = load i32, ptr %9, align 4, !tbaa !8
  %86 = icmp slt i32 %84, %85
  br i1 %86, label %88, label %87

87:                                               ; preds = %83
  store i32 5, ptr %14, align 4
  call void @llvm.lifetime.end.p0(i64 4, ptr %16) #6
  br label %125

88:                                               ; preds = %83
  %89 = load ptr, ptr %4, align 8, !tbaa !42
  %90 = load i32, ptr %16, align 4, !tbaa !8
  %91 = sext i32 %90 to i64
  %92 = getelementptr inbounds i16, ptr %89, i64 %91
  %93 = load i16, ptr %92, align 2, !tbaa !44
  %94 = call zeroext i16 @one_to_native16(i16 noundef zeroext %93)
  %95 = getelementptr inbounds nuw %struct.anon, ptr %12, i32 0, i32 0
  store i16 %94, ptr %95, align 8, !tbaa !10
  %96 = load ptr, ptr %5, align 8, !tbaa !42
  %97 = load i32, ptr %16, align 4, !tbaa !8
  %98 = sext i32 %97 to i64
  %99 = getelementptr inbounds i16, ptr %96, i64 %98
  %100 = load i16, ptr %99, align 2, !tbaa !44
  %101 = call zeroext i16 @one_to_native16(i16 noundef zeroext %100)
  %102 = getelementptr inbounds nuw %struct.anon, ptr %12, i32 0, i32 1
  store i16 %101, ptr %102, align 2, !tbaa !10
  %103 = load ptr, ptr %6, align 8, !tbaa !42
  %104 = load i32, ptr %16, align 4, !tbaa !8
  %105 = sext i32 %104 to i64
  %106 = getelementptr inbounds i16, ptr %103, i64 %105
  %107 = load i16, ptr %106, align 2, !tbaa !44
  %108 = call zeroext i16 @one_to_native16(i16 noundef zeroext %107)
  %109 = getelementptr inbounds nuw %struct.anon, ptr %12, i32 0, i32 2
  store i16 %108, ptr %109, align 4, !tbaa !10
  %110 = load ptr, ptr %7, align 8, !tbaa !42
  %111 = load i32, ptr %16, align 4, !tbaa !8
  %112 = sext i32 %111 to i64
  %113 = getelementptr inbounds i16, ptr %110, i64 %112
  %114 = load i16, ptr %113, align 2, !tbaa !44
  %115 = call zeroext i16 @one_to_native16(i16 noundef zeroext %114)
  %116 = getelementptr inbounds nuw %struct.anon, ptr %12, i32 0, i32 3
  store i16 %115, ptr %116, align 2, !tbaa !10
  %117 = load i64, ptr %12, align 8, !tbaa !10
  %118 = load ptr, ptr %15, align 8, !tbaa !98
  %119 = load i32, ptr %16, align 4, !tbaa !8
  %120 = sext i32 %119 to i64
  %121 = getelementptr inbounds i64, ptr %118, i64 %120
  store i64 %117, ptr %121, align 8, !tbaa !39
  br label %122

122:                                              ; preds = %88
  %123 = load i32, ptr %16, align 4, !tbaa !8
  %124 = add nsw i32 %123, 1
  store i32 %124, ptr %16, align 4, !tbaa !8
  br label %83, !llvm.loop !100

125:                                              ; preds = %87
  %126 = load i32, ptr %11, align 4, !tbaa !8
  %127 = load ptr, ptr %8, align 8, !tbaa !20
  %128 = sext i32 %126 to i64
  %129 = getelementptr inbounds i8, ptr %127, i64 %128
  store ptr %129, ptr %8, align 8, !tbaa !20
  call void @llvm.lifetime.end.p0(i64 8, ptr %15) #6
  br label %130

130:                                              ; preds = %125
  %131 = load i32, ptr %13, align 4, !tbaa !8
  %132 = add nsw i32 %131, 1
  store i32 %132, ptr %13, align 4, !tbaa !8
  br label %58, !llvm.loop !101

133:                                              ; preds = %62
  store i32 1, ptr %14, align 4
  call void @llvm.lifetime.end.p0(i64 8, ptr %12) #6
  call void @llvm.lifetime.end.p0(i64 4, ptr %11) #6
  call void @llvm.lifetime.end.p0(i64 4, ptr %10) #6
  call void @llvm.lifetime.end.p0(i64 4, ptr %9) #6
  call void @llvm.lifetime.end.p0(i64 8, ptr %8) #6
  call void @llvm.lifetime.end.p0(i64 8, ptr %7) #6
  call void @llvm.lifetime.end.p0(i64 8, ptr %6) #6
  call void @llvm.lifetime.end.p0(i64 8, ptr %5) #6
  call void @llvm.lifetime.end.p0(i64 8, ptr %4) #6
  call void @llvm.lifetime.end.p0(i64 8, ptr %3) #6
  ret i32 0
}