; Function Attrs: nofree norecurse nosync nounwind memory(readwrite, inaccessiblemem: none) uwtable
define internal noundef i32 @unpack_16bit_4chan_interleave(ptr noundef readonly captures(none) %0) #1 {
  %2 = getelementptr inbounds nuw i8, ptr %0, i64 8
  %3 = load ptr, ptr %2, align 8, !tbaa !22
  %4 = getelementptr inbounds nuw i8, ptr %3, i64 12
  %5 = load i32, ptr %4, align 4, !tbaa !65
  %6 = getelementptr inbounds nuw i8, ptr %0, i64 44
  %7 = load i32, ptr %6, align 4, !tbaa !16
  %8 = getelementptr inbounds nuw i8, ptr %0, i64 100
  %9 = load i32, ptr %8, align 4, !tbaa !17
  %10 = sub nsw i32 %7, %9
  %11 = getelementptr inbounds nuw i8, ptr %0, i64 96
  %12 = load i32, ptr %11, align 8, !tbaa !19
  %13 = icmp slt i32 %12, %10
  br i1 %13, label %.lr.ph45, label %._crit_edge46

.lr.ph45:                                         ; preds = %1
  %14 = shl i32 %5, 3
  %15 = getelementptr inbounds nuw i8, ptr %3, i64 36
  %16 = load i32, ptr %15, align 4, !tbaa !32
  %17 = sext i32 %5 to i64
  %18 = sext i32 %14 to i64
  %19 = icmp sgt i32 %5, 0
  %20 = sext i32 %16 to i64
  br i1 %19, label %.lr.ph.us.preheader, label %._crit_edge46

.lr.ph.us.preheader:                              ; preds = %.lr.ph45
  %21 = getelementptr inbounds nuw i8, ptr %3, i64 40
  %22 = load ptr, ptr %21, align 8, !tbaa !3
  %23 = getelementptr inbounds nuw i8, ptr %0, i64 136
  %24 = load ptr, ptr %23, align 8, !tbaa !21
  %25 = mul i32 %14, %12
  %26 = sext i32 %25 to i64
  %27 = getelementptr inbounds i8, ptr %24, i64 %26
  %wide.trip.count = zext nneg i32 %5 to i64
  br label %.lr.ph.us

.lr.ph.us:                                        ; preds = %.lr.ph.us.preheader, %._crit_edge.us
  %.03743.us = phi ptr [ %41, %._crit_edge.us ], [ %27, %.lr.ph.us.preheader ]
  %.03842.us = phi i32 [ %43, %._crit_edge.us ], [ %12, %.lr.ph.us.preheader ]
  %.03941.us = phi ptr [ %42, %._crit_edge.us ], [ %22, %.lr.ph.us.preheader ]
  %28 = getelementptr inbounds nuw i16, ptr %.03743.us, i64 %17
  %29 = getelementptr inbounds nuw i16, ptr %28, i64 %17
  %30 = getelementptr inbounds nuw i16, ptr %29, i64 %17
  br label %31

31:                                               ; preds = %.lr.ph.us, %31
  %indvars.iv = phi i64 [ 0, %.lr.ph.us ], [ %indvars.iv.next, %31 ]
  %32 = getelementptr inbounds nuw i16, ptr %.03743.us, i64 %indvars.iv
  %33 = load i16, ptr %32, align 2, !tbaa !36
  %34 = getelementptr inbounds nuw i16, ptr %28, i64 %indvars.iv
  %35 = load i16, ptr %34, align 2, !tbaa !36
  %36 = getelementptr inbounds nuw i16, ptr %29, i64 %indvars.iv
  %37 = load i16, ptr %36, align 2, !tbaa !36
  %38 = getelementptr inbounds nuw i16, ptr %30, i64 %indvars.iv
  %39 = load i16, ptr %38, align 2, !tbaa !36
  %.sroa.6.0.insert.ext.us = zext i16 %39 to i64
  %.sroa.6.0.insert.shift.us = shl nuw i64 %.sroa.6.0.insert.ext.us, 48
  %.sroa.5.0.insert.ext.us = zext i16 %37 to i64
  %.sroa.5.0.insert.shift.us = shl nuw nsw i64 %.sroa.5.0.insert.ext.us, 32
  %.sroa.4.0.insert.ext.us = zext i16 %35 to i64
  %.sroa.4.0.insert.shift.us = shl nuw nsw i64 %.sroa.4.0.insert.ext.us, 16
  %.sroa.0.0.insert.ext.us = zext i16 %33 to i64
  %.sroa.5.0.insert.insert.us = or disjoint i64 %.sroa.4.0.insert.shift.us, %.sroa.0.0.insert.ext.us
  %.sroa.4.0.insert.insert.us = or disjoint i64 %.sroa.5.0.insert.insert.us, %.sroa.5.0.insert.shift.us
  %.sroa.0.0.insert.insert.us = or disjoint i64 %.sroa.4.0.insert.insert.us, %.sroa.6.0.insert.shift.us
  %40 = getelementptr inbounds nuw i64, ptr %.03941.us, i64 %indvars.iv
  store i64 %.sroa.0.0.insert.insert.us, ptr %40, align 8, !tbaa !89
  %indvars.iv.next = add nuw nsw i64 %indvars.iv, 1
  %exitcond.not = icmp eq i64 %indvars.iv.next, %wide.trip.count
  br i1 %exitcond.not, label %._crit_edge.us, label %31, !llvm.loop !90

._crit_edge.us:                                   ; preds = %31
  %41 = getelementptr inbounds nuw i8, ptr %.03743.us, i64 %18
  %42 = getelementptr inbounds i8, ptr %.03941.us, i64 %20
  %43 = add nsw i32 %.03842.us, 1
  %44 = icmp slt i32 %43, %10
  br i1 %44, label %.lr.ph.us, label %._crit_edge46, !llvm.loop !91

._crit_edge46:                                    ; preds = %._crit_edge.us, %.lr.ph45, %1
  ret i32 0
}